; Function Attrs: mustprogress nofree norecurse nosync nounwind willreturn memory(argmem: readwrite) uwtable
define void @_ZN3zmq6pipe_t16process_pipe_hwmEii(ptr noundef nonnull align 8 captures(none) dereferenceable(328) initializes((92, 100)) %0, i32 noundef %1, i32 noundef %2) unnamed_addr #17 align 2 {
  %4 = getelementptr inbounds nuw i8, ptr %0, i64 100
  %5 = load i32, ptr %4, align 4, !tbaa !25
  %.sroa.speculated11.i = tail call i32 @llvm.smax.i32(i32 %5, i32 0)
  %6 = getelementptr inbounds nuw i8, ptr %0, i64 104
  %7 = load i32, ptr %6, align 8, !tbaa !25
  %.sroa.speculated.i = tail call i32 @llvm.smax.i32(i32 %7, i32 0)
  %8 = add nsw i32 %.sroa.speculated.i, %2
  %9 = icmp slt i32 %1, 1
  %10 = icmp eq i32 %5, 0
  %or.cond15.i = select i1 %9, i1 true, i1 %10
  %11 = icmp slt i32 %2, 1
  %12 = icmp eq i32 %7, 0
  %or.cond.i = select i1 %11, i1 true, i1 %12
  %.0.i = select i1 %or.cond.i, i32 0, i32 %8
  %13 = add nuw nsw i32 %1, 1
  %14 = add nuw nsw i32 %13, %.sroa.speculated11.i
  %15 = lshr i32 %14, 1
  %16 = select i1 %or.cond15.i, i32 0, i32 %15
  %17 = getelementptr inbounds nuw i8, ptr %0, i64 96
  store i32 %16, ptr %17, align 8, !tbaa !113
  %18 = getelementptr inbounds nuw i8, ptr %0, i64 92
  store i32 %.0.i, ptr %18, align 4, !tbaa !102
  ret void
}